target datalayout = "e-m:e-p270:32:32-p271:32:32-p272:64:64-i64:64-i128:128-f80:128-n8:16:32:64-S128"
target triple = "x86_64-pc-linux-gnu"

%union.pthread_mutex_t = type { %struct.__pthread_mutex_s }
%struct.__pthread_mutex_s = type { i32, i32, i32, i32, i32, i16, i16, %struct.__pthread_internal_list }
%struct.__pthread_internal_list = type { ptr, ptr }
%struct._lru_bump_buf = type { ptr, ptr, %union.pthread_mutex_t, ptr, i64 }

@bump_buf_lock = internal global %union.pthread_mutex_t zeroinitializer, align 8
@bump_buf_head = internal global ptr null, align 8
@bump_buf_tail = internal global ptr null, align 8

; Function Attrs: nounwind uwtable
define internal void @lru_bump_buf_link_q(ptr noundef %0) #0 {
  %2 = alloca ptr, align 8
  store ptr %0, ptr %2, align 8, !tbaa !92
  %3 = call i32 @pthread_mutex_lock(ptr noundef @bump_buf_lock) #9
  %4 = load ptr, ptr %2, align 8, !tbaa !92
  %5 = getelementptr inbounds nuw %struct._lru_bump_buf, ptr %4, i32 0, i32 0
  store ptr null, ptr %5, align 8, !tbaa !136
  %6 = load ptr, ptr @bump_buf_head, align 8, !tbaa !92
  %7 = load ptr, ptr %2, align 8, !tbaa !92
  %8 = getelementptr inbounds nuw %struct._lru_bump_buf, ptr %7, i32 0, i32 1
  store ptr %6, ptr %8, align 8, !tbaa !96
  %9 = load ptr, ptr %2, align 8, !tbaa !92
  %10 = getelementptr inbounds nuw %struct._lru_bump_buf, ptr %9, i32 0, i32 1
  %11 = load ptr, ptr %10, align 8, !tbaa !96
  %12 = icmp ne ptr %11, null
  br i1 %12, label %13, label %19

13:                                               ; preds = %1
  %14 = load ptr, ptr %2, align 8, !tbaa !92
  %15 = load ptr, ptr %2, align 8, !tbaa !92
  %16 = getelementptr inbounds nuw %struct._lru_bump_buf, ptr %15, i32 0, i32 1
  %17 = load ptr, ptr %16, align 8, !tbaa !96
  %18 = getelementptr inbounds nuw %struct._lru_bump_buf, ptr %17, i32 0, i32 0
  store ptr %14, ptr %18, align 8, !tbaa !136
  br label %19

19:                                               ; preds = %13, %1
  %20 = load ptr, ptr %2, align 8, !tbaa !92
  store ptr %20, ptr @bump_buf_head, align 8, !tbaa !92
  %21 = load ptr, ptr @bump_buf_tail, align 8, !tbaa !92
  %22 = icmp eq ptr %21, null
  br i1 %22, label %23, label %25

23:                                               ; preds = %19
  %24 = load ptr, ptr %2, align 8, !tbaa !92
  store ptr %24, ptr @bump_buf_tail, align 8, !tbaa !92
  br label %25

25:                                               ; preds = %23, %19
  %26 = call i32 @pthread_mutex_unlock(ptr noundef @bump_buf_lock) #9
  ret void
}

; Function Attrs: nounwind uwtable
define dso_local ptr @item_lru_bump_buf_create() #0 {
  %1 = alloca ptr, align 8
  %2 = alloca ptr, align 8
  %3 = alloca i32, align 4
  call void @llvm.lifetime.start.p0(i64 8, ptr %2) #9
  %4 = call noalias ptr @calloc(i64 noundef 1, i64 noundef 72) #11
  store ptr %4, ptr %2, align 8, !tbaa !92
  %5 = load ptr, ptr %2, align 8, !tbaa !92
  %6 = icmp eq ptr %5, null
  br i1 %6, label %7, label %8

7:                                                ; preds = %0
  store ptr null, ptr %1, align 8
  store i32 1, ptr %3, align 4
  br label %24

8:                                                ; preds = %0
  %9 = call ptr @bipbuf_new(i32 noundef 131072)
  %10 = load ptr, ptr %2, align 8, !tbaa !92
  %11 = getelementptr inbounds nuw %struct._lru_bump_buf, ptr %10, i32 0, i32 3
  store ptr %9, ptr %11, align 8, !tbaa !132
  %12 = load ptr, ptr %2, align 8, !tbaa !92
  %13 = getelementptr inbounds nuw %struct._lru_bump_buf, ptr %12, i32 0, i32 3
  %14 = load ptr, ptr %13, align 8, !tbaa !132
  %15 = icmp eq ptr %14, null
  br i1 %15, label %16, label %18

16:                                               ; preds = %8
  %17 = load ptr, ptr %2, align 8, !tbaa !92
  call void @free(ptr noundef %17) #9
  store ptr null, ptr %1, align 8
  store i32 1, ptr %3, align 4
  br label %24

18:                                               ; preds = %8
  %19 = load ptr, ptr %2, align 8, !tbaa !92
  %20 = getelementptr inbounds nuw %struct._lru_bump_buf, ptr %19, i32 0, i32 2
  %21 = call i32 @pthread_mutex_init(ptr noundef %20, ptr noundef null) #9
  %22 = load ptr, ptr %2, align 8, !tbaa !92
  call void @lru_bump_buf_link_q(ptr noundef %22)
  %23 = load ptr, ptr %2, align 8, !tbaa !92
  store ptr %23, ptr %1, align 8
  store i32 1, ptr %3, align 4
  br label %24

24:                                               ; preds = %18, %16, %7
  call void @llvm.lifetime.end.p0(i64 8, ptr %2) #9
  %25 = load ptr, ptr %1, align 8
  ret ptr %25
}