; Function Attrs: nounwind uwtable
define dso_local noundef ptr @item_lru_bump_buf_create() local_unnamed_addr #0 {
  %1 = tail call noalias dereferenceable_or_null(72) ptr @calloc(i64 noundef 1, i64 noundef 72) #21
  %2 = icmp eq ptr %1, null
  br i1 %2, label %20, label %3

3:                                                ; preds = %0
  %4 = tail call ptr @bipbuf_new(i32 noundef 131072) #19
  %5 = getelementptr inbounds nuw i8, ptr %1, i64 56
  store ptr %4, ptr %5, align 8, !tbaa !118
  %6 = icmp eq ptr %4, null
  br i1 %6, label %7, label %8

7:                                                ; preds = %3
  tail call void @free(ptr noundef nonnull %1) #19
  br label %20

8:                                                ; preds = %3
  %9 = getelementptr inbounds nuw i8, ptr %1, i64 16
  %10 = tail call i32 @pthread_mutex_init(ptr noundef nonnull %9, ptr noundef null) #19
  %11 = tail call i32 @pthread_mutex_lock(ptr noundef nonnull @bump_buf_lock) #19
  store ptr null, ptr %1, align 8, !tbaa !122
  %12 = load ptr, ptr @bump_buf_head, align 8, !tbaa !85
  %13 = getelementptr inbounds nuw i8, ptr %1, i64 8
  store ptr %12, ptr %13, align 8, !tbaa !123
  %.not.i = icmp eq ptr %12, null
  br i1 %.not.i, label %15, label %14

14:                                               ; preds = %8
  store ptr %1, ptr %12, align 8, !tbaa !122
  br label %15

15:                                               ; preds = %14, %8
  store ptr %1, ptr @bump_buf_head, align 8, !tbaa !85
  %16 = load ptr, ptr @bump_buf_tail, align 8, !tbaa !85
  %17 = icmp eq ptr %16, null
  br i1 %17, label %18, label %lru_bump_buf_link_q.exit

18:                                               ; preds = %15
  store ptr %1, ptr @bump_buf_tail, align 8, !tbaa !85
  br label %lru_bump_buf_link_q.exit

lru_bump_buf_link_q.exit:                         ; preds = %15, %18
  %19 = tail call i32 @pthread_mutex_unlock(ptr noundef nonnull @bump_buf_lock) #19
  br label %20

20:                                               ; preds = %0, %lru_bump_buf_link_q.exit, %7
  %.0 = phi ptr [ null, %7 ], [ %1, %lru_bump_buf_link_q.exit ], [ null, %0 ]
  ret ptr %.0
}